; Function Attrs: mustprogress nounwind uwtable
define hidden noundef zeroext i1 @_ZNK13IdealLoopTree20empty_loop_candidateEP14PhaseIdealLoop(ptr noundef nonnull align 8 dereferenceable(113) %0, ptr noundef %1) local_unnamed_addr #0 align 2 {
  %3 = getelementptr inbounds i8, ptr %0, i64 24
  %4 = load ptr, ptr %3, align 8
  %5 = tail call noundef zeroext i1 @_ZNK8LoopNode21is_valid_counted_loopE9BasicType(ptr noundef nonnull align 8 dereferenceable(72) %4, i8 noundef zeroext 10) #11
  br i1 %5, label %_ZNK15CountedLoopNode8loopexitEv.exit, label %90

_ZNK15CountedLoopNode8loopexitEv.exit:            ; preds = %2
  %6 = getelementptr inbounds i8, ptr %4, i64 8
  %7 = load ptr, ptr %6, align 8
  %8 = getelementptr inbounds i8, ptr %7, i64 16
  %9 = load ptr, ptr %8, align 8, !nonnull !8, !noundef !8
  %10 = getelementptr inbounds i8, ptr %9, i64 8
  %11 = load ptr, ptr %10, align 8
  %12 = load ptr, ptr %11, align 8
  %13 = getelementptr inbounds i8, ptr %12, i64 44
  %14 = load i32, ptr %13, align 4
  %15 = and i32 %14, 63
  %16 = icmp eq i32 %15, 53
  tail call void @llvm.assume(i1 %16)
  %17 = load ptr, ptr %12, align 8
  %18 = getelementptr inbounds i8, ptr %17, i64 208
  %19 = load ptr, ptr %18, align 8
  %20 = tail call noundef zeroext i8 %19(ptr noundef nonnull align 8 dereferenceable(60) %12) #11
  %21 = load ptr, ptr %4, align 8
  %22 = getelementptr inbounds i8, ptr %21, i64 232
  %23 = load ptr, ptr %22, align 8
  %24 = tail call noundef zeroext i8 %23(ptr noundef nonnull align 8 dereferenceable(72) %4) #11
  %.not.i.i.i = icmp eq i8 %20, %24
  %..i.i.i = select i1 %.not.i.i.i, ptr %12, ptr null
  %25 = getelementptr inbounds i8, ptr %..i.i.i, i64 8
  %26 = load ptr, ptr %25, align 8
  %27 = getelementptr inbounds i8, ptr %26, i64 8
  %28 = load ptr, ptr %27, align 8
  %29 = getelementptr inbounds i8, ptr %28, i64 40
  %30 = load i32, ptr %29, align 8
  %31 = getelementptr inbounds i8, ptr %1, i64 32
  %32 = load i32, ptr %31, align 8
  %33 = icmp ugt i32 %32, %30
  br i1 %33, label %34, label %_ZNK14PhaseIdealLoop25get_ctrl_no_update_helperEPK4Node.exit.i.i

34:                                               ; preds = %_ZNK15CountedLoopNode8loopexitEv.exit
  %35 = getelementptr inbounds i8, ptr %1, i64 40
  %36 = load ptr, ptr %35, align 8
  %37 = zext i32 %30 to i64
  %38 = getelementptr inbounds ptr, ptr %36, i64 %37
  %39 = load ptr, ptr %38, align 8
  %40 = ptrtoint ptr %39 to i64
  %41 = and i64 %40, -2
  %42 = inttoptr i64 %41 to ptr
  br label %_ZNK14PhaseIdealLoop25get_ctrl_no_update_helperEPK4Node.exit.i.i

_ZNK14PhaseIdealLoop25get_ctrl_no_update_helperEPK4Node.exit.i.i: ; preds = %34, %_ZNK15CountedLoopNode8loopexitEv.exit
  %43 = phi ptr [ %42, %34 ], [ null, %_ZNK15CountedLoopNode8loopexitEv.exit ]
  %44 = getelementptr inbounds i8, ptr %43, i64 8
  %45 = load ptr, ptr %44, align 8
  %46 = load ptr, ptr %45, align 8
  %.not.i.i = icmp eq ptr %46, null
  br i1 %.not.i.i, label %.preheader.i.i, label %_ZNK14PhaseIdealLoop18get_ctrl_no_updateEPK4Node.exit.i

.preheader.i.i:                                   ; preds = %_ZNK14PhaseIdealLoop25get_ctrl_no_update_helperEPK4Node.exit.i.i
  %47 = getelementptr inbounds i8, ptr %1, i64 40
  %48 = load ptr, ptr %47, align 8
  br label %49

49:                                               ; preds = %_ZNK14PhaseIdealLoop25get_ctrl_no_update_helperEPK4Node.exit8.i.i, %.preheader.i.i
  %.0.i.i = phi ptr [ %60, %_ZNK14PhaseIdealLoop25get_ctrl_no_update_helperEPK4Node.exit8.i.i ], [ %43, %.preheader.i.i ]
  %50 = getelementptr inbounds i8, ptr %.0.i.i, i64 40
  %51 = load i32, ptr %50, align 8
  %52 = icmp ugt i32 %32, %51
  br i1 %52, label %53, label %_ZNK14PhaseIdealLoop25get_ctrl_no_update_helperEPK4Node.exit8.i.i

53:                                               ; preds = %49
  %54 = zext i32 %51 to i64
  %55 = getelementptr inbounds ptr, ptr %48, i64 %54
  %56 = load ptr, ptr %55, align 8
  %57 = ptrtoint ptr %56 to i64
  %58 = and i64 %57, -2
  %59 = inttoptr i64 %58 to ptr
  br label %_ZNK14PhaseIdealLoop25get_ctrl_no_update_helperEPK4Node.exit8.i.i

_ZNK14PhaseIdealLoop25get_ctrl_no_update_helperEPK4Node.exit8.i.i: ; preds = %53, %49
  %60 = phi ptr [ %59, %53 ], [ null, %49 ]
  %61 = getelementptr inbounds i8, ptr %60, i64 8
  %62 = load ptr, ptr %61, align 8
  %63 = load ptr, ptr %62, align 8
  %.not7.i.i = icmp eq ptr %63, null
  br i1 %.not7.i.i, label %49, label %64, !llvm.loop !9

64:                                               ; preds = %_ZNK14PhaseIdealLoop25get_ctrl_no_update_helperEPK4Node.exit8.i.i
  %65 = getelementptr inbounds i8, ptr %60, i64 44
  %66 = load i32, ptr %65, align 4
  %67 = and i32 %66, 7
  %68 = icmp eq i32 %67, 5
  %spec.select.i.i = select i1 %68, ptr %63, ptr %60
  br label %_ZNK14PhaseIdealLoop18get_ctrl_no_updateEPK4Node.exit.i

_ZNK14PhaseIdealLoop18get_ctrl_no_updateEPK4Node.exit.i: ; preds = %64, %_ZNK14PhaseIdealLoop25get_ctrl_no_update_helperEPK4Node.exit.i.i
  %.1.i.i = phi ptr [ %43, %_ZNK14PhaseIdealLoop25get_ctrl_no_update_helperEPK4Node.exit.i.i ], [ %spec.select.i.i, %64 ]
  br i1 %33, label %71, label %69

69:                                               ; preds = %_ZNK14PhaseIdealLoop18get_ctrl_no_updateEPK4Node.exit.i
  %70 = getelementptr inbounds i8, ptr %1, i64 24
  tail call void @_ZN10Node_Array4growEj(ptr noundef nonnull align 8 dereferenceable(24) %70, i32 noundef %30) #11
  br label %71

71:                                               ; preds = %69, %_ZNK14PhaseIdealLoop18get_ctrl_no_updateEPK4Node.exit.i
  %72 = ptrtoint ptr %.1.i.i to i64
  %73 = add nsw i64 %72, 1
  %74 = inttoptr i64 %73 to ptr
  %75 = getelementptr inbounds i8, ptr %1, i64 40
  %76 = load ptr, ptr %75, align 8
  %77 = zext i32 %30 to i64
  %78 = getelementptr inbounds ptr, ptr %76, i64 %77
  store ptr %74, ptr %78, align 8
  %79 = getelementptr inbounds i8, ptr %.1.i.i, i64 40
  %80 = load i32, ptr %79, align 8
  %81 = load i32, ptr %31, align 8
  %82 = icmp ugt i32 %81, %80
  br i1 %82, label %_ZNK14PhaseIdealLoop8has_nodeEPK4Node.exit.i.i, label %_ZNK14PhaseIdealLoop8has_nodeEPK4Node.exit.thread.i.i

_ZNK14PhaseIdealLoop8has_nodeEPK4Node.exit.i.i:   ; preds = %71
  %83 = load ptr, ptr %75, align 8
  %84 = zext i32 %80 to i64
  %85 = getelementptr inbounds ptr, ptr %83, i64 %84
  %86 = load ptr, ptr %85, align 8
  %.not.i.i8 = icmp eq ptr %86, null
  br i1 %.not.i.i8, label %_ZNK14PhaseIdealLoop8has_nodeEPK4Node.exit.thread.i.i, label %_ZNK14PhaseIdealLoop9is_memberEPK13IdealLoopTreeP4Node.exit

_ZNK14PhaseIdealLoop8has_nodeEPK4Node.exit.thread.i.i: ; preds = %_ZNK14PhaseIdealLoop8has_nodeEPK4Node.exit.i.i, %71
  %87 = getelementptr inbounds i8, ptr %1, i64 64
  %88 = load ptr, ptr %87, align 8
  br label %_ZNK14PhaseIdealLoop9is_memberEPK13IdealLoopTreeP4Node.exit

_ZNK14PhaseIdealLoop9is_memberEPK13IdealLoopTreeP4Node.exit: ; preds = %_ZNK14PhaseIdealLoop8has_nodeEPK4Node.exit.i.i, %_ZNK14PhaseIdealLoop8has_nodeEPK4Node.exit.thread.i.i
  %.0.i.i7 = phi ptr [ %88, %_ZNK14PhaseIdealLoop8has_nodeEPK4Node.exit.thread.i.i ], [ %86, %_ZNK14PhaseIdealLoop8has_nodeEPK4Node.exit.i.i ]
  %89 = tail call noundef zeroext i1 @_ZNK13IdealLoopTree9is_memberEPKS_(ptr noundef nonnull align 8 dereferenceable(113) %0, ptr noundef %.0.i.i7) #11
  br label %90

90:                                               ; preds = %_ZNK14PhaseIdealLoop9is_memberEPK13IdealLoopTreeP4Node.exit, %2
  %.0 = phi i1 [ false, %2 ], [ %89, %_ZNK14PhaseIdealLoop9is_memberEPK13IdealLoopTreeP4Node.exit ]
  ret i1 %.0
}